target datalayout = "e-m:e-p270:32:32-p271:32:32-p272:64:64-i64:64-i128:128-f80:128-n8:16:32:64-S128"
target triple = "x86_64-pc-linux-gnu"

%"struct.Luau::Location" = type { %"struct.Luau::Position", %"struct.Luau::Position" }
%"struct.Luau::Position" = type { i32, i32 }
%"struct.Luau::Lexeme" = type { i32, %"struct.Luau::Location", i32, %union.anon.24 }
%union.anon.24 = type { ptr }
%"class.std::optional.133" = type { %"struct.std::_Optional_base.134" }
%"struct.std::_Optional_base.134" = type { %"struct.std::_Optional_payload.136" }
%"struct.std::_Optional_payload.136" = type { %"struct.std::_Optional_payload_base.base.138", [3 x i8] }
%"struct.std::_Optional_payload_base.base.138" = type <{ %"union.std::_Optional_payload_base<Luau::AstExprBinary::Op>::_Storage", i8 }>
%"union.std::_Optional_payload_base<Luau::AstExprBinary::Op>::_Storage" = type { i32 }
%"struct.std::_Optional_payload_base.137" = type <{ %"union.std::_Optional_payload_base<Luau::AstExprBinary::Op>::_Storage", i8, [3 x i8] }>

; Function Attrs: mustprogress nounwind uwtable
define linkonce_odr dso_local void @_ZNSt22_Optional_payload_baseIN4Luau13AstExprBinary2OpEE8_StorageIS2_Lb1EEC2Ev(ptr noundef nonnull align 4 dereferenceable(4) %0) unnamed_addr #2 comdat align 2 {
  %2 = alloca ptr, align 8
  store ptr %0, ptr %2, align 8, !tbaa !1378
  ret void
}

; Function Attrs: mustprogress nounwind uwtable
define linkonce_odr dso_local void @_ZNSt22_Optional_payload_baseIN4Luau13AstExprBinary2OpEE8_StorageIS2_Lb1EEC2IJS2_EEESt10in_place_tDpOT_(ptr noundef nonnull align 4 dereferenceable(4) %0, ptr noundef nonnull align 4 dereferenceable(4) %1) unnamed_addr #2 comdat align 2 {
  %3 = alloca ptr, align 8
  %4 = alloca ptr, align 8
  store ptr %0, ptr %3, align 8, !tbaa !1378
  store ptr %1, ptr %4, align 8, !tbaa !567
  %5 = load ptr, ptr %3, align 8
  %6 = load ptr, ptr %4, align 8, !tbaa !567
  %7 = load i32, ptr %6, align 4, !tbaa !380
  store i32 %7, ptr %5, align 4, !tbaa !47
  ret void
}

; Function Attrs: mustprogress nounwind uwtable
define linkonce_odr dso_local void @_ZNSt22_Optional_payload_baseIN4Luau13AstExprBinary2OpEEC2Ev(ptr noundef nonnull align 4 dereferenceable(5) %0) unnamed_addr #2 comdat align 2 {
  %2 = alloca ptr, align 8
  store ptr %0, ptr %2, align 8, !tbaa !1260
  %3 = load ptr, ptr %2, align 8
  %4 = getelementptr inbounds nuw %"struct.std::_Optional_payload_base.137", ptr %3, i32 0, i32 0
  call void @_ZNSt22_Optional_payload_baseIN4Luau13AstExprBinary2OpEE8_StorageIS2_Lb1EEC2Ev(ptr noundef nonnull align 4 dereferenceable(4) %4) #23
  %5 = getelementptr inbounds nuw %"struct.std::_Optional_payload_base.137", ptr %3, i32 0, i32 1
  store i8 0, ptr %5, align 4, !tbaa !1258
  ret void
}

; Function Attrs: mustprogress uwtable
define linkonce_odr dso_local void @_ZNSt22_Optional_payload_baseIN4Luau13AstExprBinary2OpEEC2IJS2_EEESt10in_place_tDpOT_(ptr noundef nonnull align 4 dereferenceable(5) %0, ptr noundef nonnull align 4 dereferenceable(4) %1) unnamed_addr #3 comdat align 2 {
  %3 = alloca ptr, align 8
  %4 = alloca ptr, align 8
  store ptr %0, ptr %3, align 8, !tbaa !1260
  store ptr %1, ptr %4, align 8, !tbaa !567
  %5 = load ptr, ptr %3, align 8
  %6 = getelementptr inbounds nuw %"struct.std::_Optional_payload_base.137", ptr %5, i32 0, i32 0
  %7 = load ptr, ptr %4, align 8, !tbaa !567
  call void @_ZNSt22_Optional_payload_baseIN4Luau13AstExprBinary2OpEE8_StorageIS2_Lb1EEC2IJS2_EEESt10in_place_tDpOT_(ptr noundef nonnull align 4 dereferenceable(4) %6, ptr noundef nonnull align 4 dereferenceable(4) %7)
  %8 = getelementptr inbounds nuw %"struct.std::_Optional_payload_base.137", ptr %5, i32 0, i32 1
  store i8 1, ptr %8, align 4, !tbaa !1258
  ret void
}

; Function Attrs: mustprogress nounwind uwtable
define linkonce_odr dso_local void @_ZNSt17_Optional_payloadIN4Luau13AstExprBinary2OpELb1ELb1ELb1EEC2Ev(ptr noundef nonnull align 4 dereferenceable(5) %0) unnamed_addr #2 comdat align 2 {
  %2 = alloca ptr, align 8
  store ptr %0, ptr %2, align 8, !tbaa !1376
  %3 = load ptr, ptr %2, align 8
  call void @_ZNSt22_Optional_payload_baseIN4Luau13AstExprBinary2OpEEC2Ev(ptr noundef nonnull align 4 dereferenceable(5) %3) #23
  ret void
}

; Function Attrs: inlinehint mustprogress uwtable
define linkonce_odr dso_local void @_ZNSt17_Optional_payloadIN4Luau13AstExprBinary2OpELb1ELb1ELb1EECI2St22_Optional_payload_baseIS2_EIJS2_EEESt10in_place_tDpOT_(ptr noundef nonnull align 4 dereferenceable(5) %0, ptr noundef nonnull align 4 dereferenceable(4) %1) unnamed_addr #10 comdat align 2 {
  %3 = alloca ptr, align 8
  %4 = alloca ptr, align 8
  store ptr %0, ptr %3, align 8, !tbaa !1376
  store ptr %1, ptr %4, align 8, !tbaa !567
  %5 = load ptr, ptr %3, align 8
  %6 = load ptr, ptr %4, align 8
  call void @_ZNSt22_Optional_payload_baseIN4Luau13AstExprBinary2OpEEC2IJS2_EEESt10in_place_tDpOT_(ptr noundef nonnull align 4 dereferenceable(5) %5, ptr noundef nonnull align 4 dereferenceable(4) %6)
  ret void
}

; Function Attrs: mustprogress nounwind uwtable
define linkonce_odr dso_local void @_ZNSt14_Optional_baseIN4Luau13AstExprBinary2OpELb1ELb1EEC2Ev(ptr noundef nonnull align 4 dereferenceable(8) %0) unnamed_addr #2 comdat align 2 {
  %2 = alloca ptr, align 8
  store ptr %0, ptr %2, align 8, !tbaa !1374
  %3 = load ptr, ptr %2, align 8
  %4 = getelementptr inbounds nuw %"struct.std::_Optional_base.134", ptr %3, i32 0, i32 0
  call void @_ZNSt17_Optional_payloadIN4Luau13AstExprBinary2OpELb1ELb1ELb1EEC2Ev(ptr noundef nonnull align 4 dereferenceable(5) %4) #23
  ret void
}

; Function Attrs: noinline noreturn nounwind uwtable
define linkonce_odr hidden void @__clang_call_terminate(ptr noundef %0) #13 comdat {
  %2 = call ptr @__cxa_begin_catch(ptr %0) #23
  call void @_ZSt9terminatev() #24
  unreachable
}

; Function Attrs: mustprogress uwtable
define linkonce_odr dso_local void @_ZNSt14_Optional_baseIN4Luau13AstExprBinary2OpELb1ELb1EEC2IJS2_ETnNSt9enable_ifIX18is_constructible_vIS2_DpT_EEbE4typeELb0EEESt10in_place_tDpOS6_(ptr noundef nonnull align 4 dereferenceable(8) %0, ptr noundef nonnull align 4 dereferenceable(4) %1) unnamed_addr #3 comdat align 2 {
  %3 = alloca ptr, align 8
  %4 = alloca ptr, align 8
  store ptr %0, ptr %3, align 8, !tbaa !1374
  store ptr %1, ptr %4, align 8, !tbaa !567
  %5 = load ptr, ptr %3, align 8
  %6 = getelementptr inbounds nuw %"struct.std::_Optional_base.134", ptr %5, i32 0, i32 0
  %7 = load ptr, ptr %4, align 8, !tbaa !567
  call void @_ZNSt17_Optional_payloadIN4Luau13AstExprBinary2OpELb1ELb1ELb1EECI2St22_Optional_payload_baseIS2_EIJS2_EEESt10in_place_tDpOT_(ptr noundef nonnull align 4 dereferenceable(5) %6, ptr noundef nonnull align 4 dereferenceable(4) %7)
  ret void
}

; Function Attrs: mustprogress nounwind uwtable
define linkonce_odr dso_local void @_ZNSt8optionalIN4Luau13AstExprBinary2OpEEC2ESt9nullopt_t(ptr noundef nonnull align 4 dereferenceable(8) %0) unnamed_addr #2 comdat align 2 {
  %2 = alloca ptr, align 8
  store ptr %0, ptr %2, align 8, !tbaa !438
  %3 = load ptr, ptr %2, align 8
  call void @_ZNSt14_Optional_baseIN4Luau13AstExprBinary2OpELb1ELb1EEC2Ev(ptr noundef nonnull align 4 dereferenceable(8) %3) #23
  ret void
}

; Function Attrs: mustprogress nounwind uwtable
define linkonce_odr dso_local void @_ZNSt8optionalIN4Luau13AstExprBinary2OpEEC2IS2_TnNSt9enable_ifIX7__and_vISt6__not_ISt7is_sameIS3_NSt9remove_cvINSt16remove_referenceIT_E4typeEE4typeEEES6_IS7_ISt10in_place_tSE_EESt16is_constructibleIS2_JSA_EESt14is_convertibleISA_S2_EEEbE4typeELb1EEEOSA_(ptr noundef nonnull align 4 dereferenceable(8) %0, ptr noundef nonnull align 4 dereferenceable(4) %1) unnamed_addr #2 comdat align 2 personality ptr @__gxx_personality_v0 {
  %3 = alloca ptr, align 8
  %4 = alloca ptr, align 8
  store ptr %0, ptr %3, align 8, !tbaa !438
  store ptr %1, ptr %4, align 8, !tbaa !567
  %5 = load ptr, ptr %3, align 8
  %6 = load ptr, ptr %4, align 8, !tbaa !567
  invoke void @_ZNSt14_Optional_baseIN4Luau13AstExprBinary2OpELb1ELb1EEC2IJS2_ETnNSt9enable_ifIX18is_constructible_vIS2_DpT_EEbE4typeELb0EEESt10in_place_tDpOS6_(ptr noundef nonnull align 4 dereferenceable(8) %5, ptr noundef nonnull align 4 dereferenceable(4) %6)
          to label %7 unwind label %8

7:                                                ; preds = %2
  ret void

8:                                                ; preds = %2
  %9 = landingpad { ptr, i32 }
          catch ptr null
  %10 = extractvalue { ptr, i32 } %9, 0
  call void @__clang_call_terminate(ptr %10) #24
  unreachable
}

; Function Attrs: mustprogress nounwind uwtable
define dso_local i64 @_ZN4Luau6Parser15parseCompoundOpERKNS_6LexemeE(ptr noundef nonnull align 8 dereferenceable(32) %0) #2 align 2 {
  %2 = alloca %"class.std::optional.133", align 4
  %3 = alloca ptr, align 8
  %4 = alloca i32, align 4
  %5 = alloca i32, align 4
  %6 = alloca i32, align 4
  %7 = alloca i32, align 4
  %8 = alloca i32, align 4
  %9 = alloca i32, align 4
  %10 = alloca i32, align 4
  %11 = alloca i32, align 4
  store ptr %0, ptr %3, align 8, !tbaa !245
  %12 = load ptr, ptr %3, align 8, !tbaa !245
  %13 = getelementptr inbounds nuw %"struct.Luau::Lexeme", ptr %12, i32 0, i32 0
  %14 = load i32, ptr %13, align 8, !tbaa !87
  %15 = icmp eq i32 %14, 270
  br i1 %15, label %16, label %17

16:                                               ; preds = %1
  call void @llvm.lifetime.start.p0(i64 4, ptr %4) #23
  store i32 0, ptr %4, align 4, !tbaa !380
  call void @_ZNSt8optionalIN4Luau13AstExprBinary2OpEEC2IS2_TnNSt9enable_ifIX7__and_vISt6__not_ISt7is_sameIS3_NSt9remove_cvINSt16remove_referenceIT_E4typeEE4typeEEES6_IS7_ISt10in_place_tSE_EESt16is_constructibleIS2_JSA_EESt14is_convertibleISA_S2_EEEbE4typeELb1EEEOSA_(ptr noundef nonnull align 4 dereferenceable(8) %2, ptr noundef nonnull align 4 dereferenceable(4) %4) #23
  call void @llvm.lifetime.end.p0(i64 4, ptr %4) #23
  br label %60

17:                                               ; preds = %1
  %18 = load ptr, ptr %3, align 8, !tbaa !245
  %19 = getelementptr inbounds nuw %"struct.Luau::Lexeme", ptr %18, i32 0, i32 0
  %20 = load i32, ptr %19, align 8, !tbaa !87
  %21 = icmp eq i32 %20, 271
  br i1 %21, label %22, label %23

22:                                               ; preds = %17
  call void @llvm.lifetime.start.p0(i64 4, ptr %5) #23
  store i32 1, ptr %5, align 4, !tbaa !380
  call void @_ZNSt8optionalIN4Luau13AstExprBinary2OpEEC2IS2_TnNSt9enable_ifIX7__and_vISt6__not_ISt7is_sameIS3_NSt9remove_cvINSt16remove_referenceIT_E4typeEE4typeEEES6_IS7_ISt10in_place_tSE_EESt16is_constructibleIS2_JSA_EESt14is_convertibleISA_S2_EEEbE4typeELb1EEEOSA_(ptr noundef nonnull align 4 dereferenceable(8) %2, ptr noundef nonnull align 4 dereferenceable(4) %5) #23
  call void @llvm.lifetime.end.p0(i64 4, ptr %5) #23
  br label %60

23:                                               ; preds = %17
  %24 = load ptr, ptr %3, align 8, !tbaa !245
  %25 = getelementptr inbounds nuw %"struct.Luau::Lexeme", ptr %24, i32 0, i32 0
  %26 = load i32, ptr %25, align 8, !tbaa !87
  %27 = icmp eq i32 %26, 272
  br i1 %27, label %28, label %29

28:                                               ; preds = %23
  call void @llvm.lifetime.start.p0(i64 4, ptr %6) #23
  store i32 2, ptr %6, align 4, !tbaa !380
  call void @_ZNSt8optionalIN4Luau13AstExprBinary2OpEEC2IS2_TnNSt9enable_ifIX7__and_vISt6__not_ISt7is_sameIS3_NSt9remove_cvINSt16remove_referenceIT_E4typeEE4typeEEES6_IS7_ISt10in_place_tSE_EESt16is_constructibleIS2_JSA_EESt14is_convertibleISA_S2_EEEbE4typeELb1EEEOSA_(ptr noundef nonnull align 4 dereferenceable(8) %2, ptr noundef nonnull align 4 dereferenceable(4) %6) #23
  call void @llvm.lifetime.end.p0(i64 4, ptr %6) #23
  br label %60

29:                                               ; preds = %23
  %30 = load ptr, ptr %3, align 8, !tbaa !245
  %31 = getelementptr inbounds nuw %"struct.Luau::Lexeme", ptr %30, i32 0, i32 0
  %32 = load i32, ptr %31, align 8, !tbaa !87
  %33 = icmp eq i32 %32, 273
  br i1 %33, label %34, label %35

34:                                               ; preds = %29
  call void @llvm.lifetime.start.p0(i64 4, ptr %7) #23
  store i32 3, ptr %7, align 4, !tbaa !380
  call void @_ZNSt8optionalIN4Luau13AstExprBinary2OpEEC2IS2_TnNSt9enable_ifIX7__and_vISt6__not_ISt7is_sameIS3_NSt9remove_cvINSt16remove_referenceIT_E4typeEE4typeEEES6_IS7_ISt10in_place_tSE_EESt16is_constructibleIS2_JSA_EESt14is_convertibleISA_S2_EEEbE4typeELb1EEEOSA_(ptr noundef nonnull align 4 dereferenceable(8) %2, ptr noundef nonnull align 4 dereferenceable(4) %7) #23
  call void @llvm.lifetime.end.p0(i64 4, ptr %7) #23
  br label %60

35:                                               ; preds = %29
  %36 = load ptr, ptr %3, align 8, !tbaa !245
  %37 = getelementptr inbounds nuw %"struct.Luau::Lexeme", ptr %36, i32 0, i32 0
  %38 = load i32, ptr %37, align 8, !tbaa !87
  %39 = icmp eq i32 %38, 274
  br i1 %39, label %40, label %41

40:                                               ; preds = %35
  call void @llvm.lifetime.start.p0(i64 4, ptr %8) #23
  store i32 4, ptr %8, align 4, !tbaa !380
  call void @_ZNSt8optionalIN4Luau13AstExprBinary2OpEEC2IS2_TnNSt9enable_ifIX7__and_vISt6__not_ISt7is_sameIS3_NSt9remove_cvINSt16remove_referenceIT_E4typeEE4typeEEES6_IS7_ISt10in_place_tSE_EESt16is_constructibleIS2_JSA_EESt14is_convertibleISA_S2_EEEbE4typeELb1EEEOSA_(ptr noundef nonnull align 4 dereferenceable(8) %2, ptr noundef nonnull align 4 dereferenceable(4) %8) #23
  call void @llvm.lifetime.end.p0(i64 4, ptr %8) #23
  br label %60

41:                                               ; preds = %35
  %42 = load ptr, ptr %3, align 8, !tbaa !245
  %43 = getelementptr inbounds nuw %"struct.Luau::Lexeme", ptr %42, i32 0, i32 0
  %44 = load i32, ptr %43, align 8, !tbaa !87
  %45 = icmp eq i32 %44, 275
  br i1 %45, label %46, label %47

46:                                               ; preds = %41
  call void @llvm.lifetime.start.p0(i64 4, ptr %9) #23
  store i32 5, ptr %9, align 4, !tbaa !380
  call void @_ZNSt8optionalIN4Luau13AstExprBinary2OpEEC2IS2_TnNSt9enable_ifIX7__and_vISt6__not_ISt7is_sameIS3_NSt9remove_cvINSt16remove_referenceIT_E4typeEE4typeEEES6_IS7_ISt10in_place_tSE_EESt16is_constructibleIS2_JSA_EESt14is_convertibleISA_S2_EEEbE4typeELb1EEEOSA_(ptr noundef nonnull align 4 dereferenceable(8) %2, ptr noundef nonnull align 4 dereferenceable(4) %9) #23
  call void @llvm.lifetime.end.p0(i64 4, ptr %9) #23
  br label %60

47:                                               ; preds = %41
  %48 = load ptr, ptr %3, align 8, !tbaa !245
  %49 = getelementptr inbounds nuw %"struct.Luau::Lexeme", ptr %48, i32 0, i32 0
  %50 = load i32, ptr %49, align 8, !tbaa !87
  %51 = icmp eq i32 %50, 276
  br i1 %51, label %52, label %53

52:                                               ; preds = %47
  call void @llvm.lifetime.start.p0(i64 4, ptr %10) #23
  store i32 6, ptr %10, align 4, !tbaa !380
  call void @_ZNSt8optionalIN4Luau13AstExprBinary2OpEEC2IS2_TnNSt9enable_ifIX7__and_vISt6__not_ISt7is_sameIS3_NSt9remove_cvINSt16remove_referenceIT_E4typeEE4typeEEES6_IS7_ISt10in_place_tSE_EESt16is_constructibleIS2_JSA_EESt14is_convertibleISA_S2_EEEbE4typeELb1EEEOSA_(ptr noundef nonnull align 4 dereferenceable(8) %2, ptr noundef nonnull align 4 dereferenceable(4) %10) #23
  call void @llvm.lifetime.end.p0(i64 4, ptr %10) #23
  br label %60

53:                                               ; preds = %47
  %54 = load ptr, ptr %3, align 8, !tbaa !245
  %55 = getelementptr inbounds nuw %"struct.Luau::Lexeme", ptr %54, i32 0, i32 0
  %56 = load i32, ptr %55, align 8, !tbaa !87
  %57 = icmp eq i32 %56, 277
  br i1 %57, label %58, label %59

58:                                               ; preds = %53
  call void @llvm.lifetime.start.p0(i64 4, ptr %11) #23
  store i32 7, ptr %11, align 4, !tbaa !380
  call void @_ZNSt8optionalIN4Luau13AstExprBinary2OpEEC2IS2_TnNSt9enable_ifIX7__and_vISt6__not_ISt7is_sameIS3_NSt9remove_cvINSt16remove_referenceIT_E4typeEE4typeEEES6_IS7_ISt10in_place_tSE_EESt16is_constructibleIS2_JSA_EESt14is_convertibleISA_S2_EEEbE4typeELb1EEEOSA_(ptr noundef nonnull align 4 dereferenceable(8) %2, ptr noundef nonnull align 4 dereferenceable(4) %11) #23
  call void @llvm.lifetime.end.p0(i64 4, ptr %11) #23
  br label %60

59:                                               ; preds = %53
  call void @_ZNSt8optionalIN4Luau13AstExprBinary2OpEEC2ESt9nullopt_t(ptr noundef nonnull align 4 dereferenceable(8) %2) #23
  br label %60

60:                                               ; preds = %59, %58, %52, %46, %40, %34, %28, %22, %16
  %61 = getelementptr inbounds nuw %"class.std::optional.133", ptr %2, i32 0, i32 0
  %62 = getelementptr inbounds nuw %"struct.std::_Optional_base.134", ptr %61, i32 0, i32 0
  %63 = load i64, ptr %62, align 4
  ret i64 %63
}