; Function Attrs: mustprogress nofree norecurse nosync nounwind willreturn memory(argmem: read) uwtable
define dso_local range(i64 0, 4294967304) i64 @_ZN4Luau6Parser15parseCompoundOpERKNS_6LexemeE(ptr noundef nonnull readonly align 8 captures(none) dereferenceable(32) %0) local_unnamed_addr #5 align 2 personality ptr @__gxx_personality_v0 {
  %2 = load i32, ptr %0, align 8, !tbaa !79
  %switch.tableidx = add i32 %2, -270
  %3 = icmp ult i32 %switch.tableidx, 8
  %narrow = select i1 %3, i32 %switch.tableidx, i32 0
  %.sroa.0.0 = zext i32 %narrow to i64
  %.sroa.9.0 = select i1 %3, i64 4294967296, i64 0
  %.sroa.0.0.insert.insert = or disjoint i64 %.sroa.9.0, %.sroa.0.0
  ret i64 %.sroa.0.0.insert.insert
}